target datalayout = "e-m:e-p270:32:32-p271:32:32-p272:64:64-i64:64-i128:128-f80:128-n8:16:32:64-S128"
target triple = "x86_64-pc-linux-gnu"

; Function Attrs: mustprogress nounwind uwtable
define internal void @_ZN2cvL8weightL1EPfiS0_(ptr noundef %0, i32 noundef %1, ptr noundef %2) #6 {
  %4 = alloca ptr, align 8
  %5 = alloca i32, align 4
  %6 = alloca ptr, align 8
  %7 = alloca i32, align 4
  %8 = alloca double, align 8
  store ptr %0, ptr %4, align 8, !tbaa !37
  store i32 %1, ptr %5, align 4, !tbaa !10
  store ptr %2, ptr %6, align 8, !tbaa !37
  call void @llvm.lifetime.start.p0(i64 4, ptr %7) #15
  store i32 0, ptr %7, align 4, !tbaa !10
  br label %9

9:                                                ; preds = %34, %3
  %10 = load i32, ptr %7, align 4, !tbaa !10
  %11 = load i32, ptr %5, align 4, !tbaa !10
  %12 = icmp slt i32 %10, %11
  br i1 %12, label %13, label %37

13:                                               ; preds = %9
  call void @llvm.lifetime.start.p0(i64 8, ptr %8) #15
  %14 = load ptr, ptr %4, align 8, !tbaa !37
  %15 = load i32, ptr %7, align 4, !tbaa !10
  %16 = sext i32 %15 to i64
  %17 = getelementptr inbounds float, ptr %14, i64 %16
  %18 = load float, ptr %17, align 4, !tbaa !35
  %19 = fpext float %18 to double
  %20 = call double @llvm.fabs.f64(double %19)
  store double %20, ptr %8, align 8, !tbaa !12
  %21 = load double, ptr %8, align 8, !tbaa !12
  %22 = fcmp olt double %21, 0x3EB0C6F7A0B5ED8D
  br i1 %22, label %23, label %24

23:                                               ; preds = %13
  br label %26

24:                                               ; preds = %13
  %25 = load double, ptr %8, align 8, !tbaa !12
  br label %26

26:                                               ; preds = %24, %23
  %27 = phi double [ 0x3EB0C6F7A0B5ED8D, %23 ], [ %25, %24 ]
  %28 = fdiv double 1.000000e+00, %27
  %29 = fptrunc double %28 to float
  %30 = load ptr, ptr %6, align 8, !tbaa !37
  %31 = load i32, ptr %7, align 4, !tbaa !10
  %32 = sext i32 %31 to i64
  %33 = getelementptr inbounds float, ptr %30, i64 %32
  store float %29, ptr %33, align 4, !tbaa !35
  call void @llvm.lifetime.end.p0(i64 8, ptr %8) #15
  br label %34

34:                                               ; preds = %26
  %35 = load i32, ptr %7, align 4, !tbaa !10
  %36 = add nsw i32 %35, 1
  store i32 %36, ptr %7, align 4, !tbaa !10
  br label %9, !llvm.loop !86

37:                                               ; preds = %9
  call void @llvm.lifetime.end.p0(i64 4, ptr %7) #15
  ret void
}