; Function Attrs: mustprogress nofree norecurse nosync nounwind memory(argmem: readwrite) uwtable
define internal void @_ZN2cvL8weightL1EPfiS0_(ptr noundef readonly captures(none) %0, i32 noundef %1, ptr noundef writeonly captures(none) %2) unnamed_addr #7 {
  %4 = icmp sgt i32 %1, 0
  br i1 %4, label %.lr.ph.preheader, label %._crit_edge

.lr.ph.preheader:                                 ; preds = %3
  %wide.trip.count = zext nneg i32 %1 to i64
  br label %.lr.ph

.lr.ph:                                           ; preds = %.lr.ph.preheader, %.lr.ph
  %indvars.iv = phi i64 [ 0, %.lr.ph.preheader ], [ %indvars.iv.next, %.lr.ph ]
  %5 = getelementptr inbounds nuw float, ptr %0, i64 %indvars.iv
  %6 = load float, ptr %5, align 4, !tbaa !33
  %7 = tail call float @llvm.fabs.f32(float %6)
  %8 = fpext float %7 to double
  %9 = fcmp olt double %8, 0x3EB0C6F7A0B5ED8D
  %10 = select i1 %9, double 0x3EB0C6F7A0B5ED8D, double %8
  %11 = fdiv double 1.000000e+00, %10
  %12 = fptrunc double %11 to float
  %13 = getelementptr inbounds nuw float, ptr %2, i64 %indvars.iv
  store float %12, ptr %13, align 4, !tbaa !33
  %indvars.iv.next = add nuw nsw i64 %indvars.iv, 1
  %exitcond.not = icmp eq i64 %indvars.iv.next, %wide.trip.count
  br i1 %exitcond.not, label %._crit_edge, label %.lr.ph, !llvm.loop !71

._crit_edge:                                      ; preds = %.lr.ph, %3
  ret void
}